ccopy_reg
_reconstructor
p0
(cgrapheekdb.backends.data.localmem
LocalMemoryGraph
p1
c__builtin__
object
p2
Ntp3
Rp4
(dp5
S'_dic'
p6
(dp7
S'v/0/ov'
p8
(lp9
sS'v/2/ie/c'
p10
I0
sS'e/0/ov'
p11
(lp12
I0
asS'v/1/bv/c'
p13
I1
sS'v/3/ov/0'
p14
I1
sS'v/0/oe'
p15
(lp16
sS'v/2/d'
p17
(dp18
S'type'
p19
Vpeople
p20
sS'uuid'
p21
V8ACAYDMCKHNZE2N4X9GDZWKBCZHRZ7G0
p22
sS'label'
p23
VVidar Andersen
p24
ssS'v/3/d'
p25
(dp26
g19
Vpeople
p27
sg21
VXSNZMXWZ4Y8WXR58CKYTRZZC2GAU57BN
p28
sg23
VPuja Abbassi
p29
ssS'v/0/iv/3'
p30
I1
sS'v/0/iv/1'
p31
I1
sS'v/0/d'
p32
(dp33
g19
Vproject
p34
sg21
VM5SRIMRGU4KAN9OA9DNUONUKENPOTBUI
p35
sg23
VSAN
p36
ssS'v/2/iv/c'
p37
I0
sS'v/0/bv'
p38
(lp39
I1
aI2
aI3
asS'v/3/oe/c'
p40
I1
sS'e/1/iv'
p41
(lp42
I2
asS'v/1/ie'
p43
(lp44
sS'v/2/ov/0'
p45
I1
sS'v/3/ov/c'
p46
I1
sS'v/2/bv/0'
p47
I1
sS'm/e/id/0'
p48
(lp49
I0
aI1
aI2
asS'v/0/be'
p50
(lp51
I0
aI1
aI2
asS'v/1/iv'
p52
(lp53
sS'prep'
p54
I1
sS'm/v/id/0'
p55
(lp56
I0
aI1
aI2
aI3
asS'v/3/iv'
p57
(lp58
sS'e/2/iv'
p59
(lp60
I3
asS'v/2/ov/c'
p61
I1
sS'v/0/iv/c'
p62
I3
sS'e/2/d'
p63
(dp64
S'action'
p65
Vrole
p66
sS'weight'
p67
F0.2
ssS'v/0/ov/c'
p68
I0
sS'm/e/c'
p69
I3
sS'v/1/be/c'
p70
I1
sS'v/3/ie'
p71
(lp72
sS'v/1/bv/0'
p73
I1
sS'e/1/d'
p74
(dp75
g65
Vrole
p76
sg67
F0.2
ssS'v/3/ie/c'
p77
I0
sS'e/0/d'
p78
(dp79
g65
Vrole
p80
sg67
F0.8
ssS'v/3/be/c'
p81
I1
sS'm/e/r'
p82
I0
sS'v/3/bv'
p83
(lp84
I0
asS'v/3/bv/c'
p85
I1
sS'v/2/bv/c'
p86
I1
sS'm/v/ci'
p87
I0
sS'v/0/oe/c'
p88
I0
sS'v/2/ov'
p89
(lp90
I0
asS'e/0/bv/0'
p91
I1
sS'e/0/bv/1'
p92
I1
sS'v/3/oe/2'
p93
I1
sS'e/0/ov/0'
p94
I1
sS'e/1/ov/0'
p95
I1
sS'e/0/iv/1'
p96
I1
sS'v/2/oe'
p97
(lp98
I1
asS'e/2/ov/0'
p99
I1
sS'e/2/bv'
p100
(lp101
I3
aI0
asS'v/1/oe/c'
p102
I1
sS'v/0/bv/2'
p103
I1
sS'v/0/ie/c'
p104
I3
sS'v/1/be'
p105
(lp106
I0
asS'v/0/iv/2'
p107
I1
sS'v/0/ie'
p108
(lp109
I0
aI1
aI2
asS'v/3/be'
p110
(lp111
I2
asS'e/1/iv/2'
p112
I1
sS'v/0/be/c'
p113
I3
sS'v/0/bv/3'
p114
I1
sS'e/1/ov'
p115
(lp116
I0
asS'v/0/bv/1'
p117
I1
sS'e/1/bv/2'
p118
I1
sS'e/2/iv/3'
p119
I1
sS'm/v/c'
p120
I4
sS'v/2/oe/1'
p121
I1
sS'e/0/bv'
p122
(lp123
I1
aI0
asS'v/3/ov'
p124
(lp125
I0
asS'v/1/ov/0'
p126
I1
sS'm/v/r'
p127
I0
sS'v/1/bv'
p128
(lp129
I0
asS'e/2/ov'
p130
(lp131
I0
asS'v/0/iv'
p132
(lp133
I1
aI2
aI3
asS'e/2/bv/0'
p134
I1
sS'e/2/bv/3'
p135
I1
sS'v/2/bv'
p136
(lp137
I0
asS'v/3/oe'
p138
(lp139
I2
asS'v/1/ov'
p140
(lp141
I0
asS'v/3/bv/0'
p142
I1
sS'v/0/be/0'
p143
I1
sS'v/1/ie/c'
p144
I0
sS'm/e/ci'
p145
I0
sS'v/0/be/1'
p146
I1
sS'v/1/oe/0'
p147
I1
sS'v/3/be/2'
p148
I1
sS'v/0/ie/1'
p149
I1
sS'v/0/ie/0'
p150
I1
sS'v/0/ie/2'
p151
I1
sS'e/1/bv/0'
p152
I1
sS'v/1/oe'
p153
(lp154
I0
asS'v/3/iv/c'
p155
I0
sS'v/2/be/1'
p156
I1
sS'v/1/ov/c'
p157
I1
sS'v/1/d'
p158
(dp159
g19
Vpeople
p160
sg21
V02VFJXG79B6627A37DMMGLHQE09CGN3T
p161
sg23
VFrancis Dierick
p162
ssS'v/2/ie'
p163
(lp164
sS'e/0/iv'
p165
(lp166
I1
asS'v/1/be/0'
p167
I1
sS'v/0/bv/c'
p168
I3
sS'e/1/bv'
p169
(lp170
I2
aI0
asS'v/0/be/2'
p171
I1
sS'v/2/be/c'
p172
I1
sS'v/1/iv/c'
p173
I0
sS'v/2/iv'
p174
(lp175
sS'v/2/oe/c'
p176
I1
sS'v/2/be'
p177
(lp178
I1
assS'_edge_count'
p179
I3
sS'_node_count'
p180
I4
sS'_closed'
p181
I00
sS'_node_indexes'
p182
(lp183
sS'_edge_indexes'
p184
(lp185
sS'_optimizer'
p186
g0
(cgrapheekdb.backends.data.optimizer
Optimizer
p187
g2
Ntp188
Rp189
(dp190
S'_graph'
p191
g4
sbsb.